Certificate:
    Data:
        Version: 3 (0x2)
        Serial Number: 1 (0x1)
        Signature Algorithm: sha256WithRSAEncryption
        Issuer: CN=hss.OpenAir5G.Alliance, C=FR, ST=PACA, L=Aix, O=Eurecom, OU=CM
        Validity
            Not Before: Jan 15 09:39:24 2020 GMT
            Not After : Jan 14 09:39:24 2021 GMT
        Subject: C=FR, ST=PACA, O=Eurecom, OU=CM, CN=hss.OpenAir5G.Alliance
        Subject Public Key Info:
            Public Key Algorithm: rsaEncryption
                RSA Public-Key: (1024 bit)
                Modulus:
                    00:b1:43:38:10:fc:3c:a9:dc:36:39:b0:af:5d:7b:
                    30:fc:ed:10:de:88:1d:ab:c0:c0:77:54:77:10:46:
                    a0:e8:65:a8:dd:6b:48:3a:13:ea:8f:30:7a:1c:66:
                    5b:69:f3:57:c6:f0:13:4b:5a:cb:d5:5c:6d:ba:f6:
                    50:e5:24:0f:7b:b4:f7:7d:d0:a6:07:1b:f8:72:d8:
                    fb:e0:32:61:be:9f:d6:41:9f:1c:ad:73:88:8e:42:
                    19:57:bc:eb:0d:dd:a3:50:e4:c3:cf:b8:25:52:0f:
                    c7:37:02:1b:2e:c4:61:7d:41:b3:50:00:9c:af:e6:
                    cb:aa:77:a9:c2:b2:9e:ff:5d
                Exponent: 65537 (0x10001)
        X509v3 extensions:
            X509v3 Basic Constraints: 
                CA:FALSE
            Netscape Comment: 
                OpenSSL Generated Certificate
            X509v3 Subject Key Identifier: 
                98:B5:97:46:2C:DD:E5:23:52:CD:EA:F8:90:05:5C:F3:5C:6E:EE:B3
            X509v3 Authority Key Identifier: 
                keyid:37:E3:33:B7:29:70:9B:76:AB:62:43:79:74:AA:5F:67:EC:DC:21:73

    Signature Algorithm: sha256WithRSAEncryption
         b1:16:04:bd:4d:04:e6:24:25:2d:40:17:87:be:00:99:f6:27:
         a6:f4:d7:d5:d7:93:5f:5d:1d:b7:96:d7:de:fc:c1:57:f0:be:
         33:5d:a1:0c:0f:de:6f:72:99:1e:3f:da:88:cc:09:39:66:7e:
         e4:93:37:1a:88:31:5c:ef:a3:60:0f:3b:07:e7:12:b8:98:40:
         17:e8:2e:33:cd:03:09:66:91:52:d4:08:24:e9:1f:05:98:94:
         0c:5c:87:70:bb:aa:4e:c4:d1:74:f6:92:c5:16:7a:4b:b6:4c:
         fd:69:68:99:a2:3e:20:7d:98:9f:33:ec:35:a6:50:7e:33:0e:
         75:18
-----BEGIN CERTIFICATE-----
MIICtzCCAiCgAwIBAgIBATANBgkqhkiG9w0BAQsFADBqMR8wHQYDVQQDDBZoc3Mu
T3BlbkFpcjVHLkFsbGlhbmNlMQswCQYDVQQGEwJGUjENMAsGA1UECAwEUEFDQTEM
MAoGA1UEBwwDQWl4MRAwDgYDVQQKDAdFdXJlY29tMQswCQYDVQQLDAJDTTAeFw0y
MDAxMTUwOTM5MjRaFw0yMTAxMTQwOTM5MjRaMFwxCzAJBgNVBAYTAkZSMQ0wCwYD
VQQIDARQQUNBMRAwDgYDVQQKDAdFdXJlY29tMQswCQYDVQQLDAJDTTEfMB0GA1UE
AwwWaHNzLk9wZW5BaXI1Ry5BbGxpYW5jZTCBnzANBgkqhkiG9w0BAQEFAAOBjQAw
gYkCgYEAsUM4EPw8qdw2ObCvXXsw/O0Q3ogdq8DAd1R3EEag6GWo3WtIOhPqjzB6
HGZbafNXxvATS1rL1VxtuvZQ5SQPe7T3fdCmBxv4ctj74DJhvp/WQZ8crXOIjkIZ
V7zrDd2jUOTDz7glUg/HNwIbLsRhfUGzUACcr+bLqnepwrKe/10CAwEAAaN7MHkw
CQYDVR0TBAIwADAsBglghkgBhvhCAQ0EHxYdT3BlblNTTCBHZW5lcmF0ZWQgQ2Vy
dGlmaWNhdGUwHQYDVR0OBBYEFJi1l0Ys3eUjUs3q+JAFXPNcbu6zMB8GA1UdIwQY
MBaAFDfjM7cpcJt2q2JDeXSqX2fs3CFzMA0GCSqGSIb3DQEBCwUAA4GBALEWBL1N
BOYkJS1AF4e+AJn2J6b019XXk19dHbeW1978wVfwvjNdoQwP3m9ymR4/2ojMCTlm
fuSTNxqIMVzvo2APOwfnEriYQBfoLjPNAwlmkVLUCCTpHwWYlAxch3C7qk7E0XT2
ksUWeku2TP1paJmiPiB9mJ8z7DWmUH4zDnUY
-----END CERTIFICATE-----
