Certificate:
    Data:
        Version: 3 (0x2)
        Serial Number: 1 (0x1)
        Signature Algorithm: sha256WithRSAEncryption
        Issuer: CN=marietjie-AORUS-7-SA.OpenAir5G.Alliance, C=FR, ST=PACA, L=Aix, O=Eurecom, OU=CM
        Validity
            Not Before: Jan 17 06:41:31 2020 GMT
            Not After : Jan 16 06:41:31 2021 GMT
        Subject: C=FR, ST=PACA, O=Eurecom, OU=CM, CN=marietjie-AORUS-7-SA.OpenAir5G.Alliance
        Subject Public Key Info:
            Public Key Algorithm: rsaEncryption
                RSA Public-Key: (1024 bit)
                Modulus:
                    00:c3:e3:02:41:d7:4a:8a:20:3e:73:5f:28:4b:95:
                    33:3d:96:1d:26:ad:1d:36:99:48:dc:c1:99:c2:94:
                    fb:b7:e9:65:63:b4:28:c9:96:0e:64:7b:ba:a5:0d:
                    6e:af:f2:f8:4b:f1:ff:a6:d8:da:1f:5d:ff:2c:67:
                    55:41:39:6f:6b:63:ba:23:22:f6:22:bd:72:3f:4d:
                    7e:53:76:c5:1a:11:a6:1b:d8:1f:6f:96:97:85:8a:
                    8a:b2:c9:6e:d2:30:1f:4a:a2:7b:42:54:1b:b9:67:
                    cf:7e:f3:4c:a9:87:8b:15:25:8f:c0:e2:3d:fe:04:
                    70:f8:79:40:f8:17:2d:c3:77
                Exponent: 65537 (0x10001)
        X509v3 extensions:
            X509v3 Basic Constraints: 
                CA:FALSE
            Netscape Comment: 
                OpenSSL Generated Certificate
            X509v3 Subject Key Identifier: 
                E2:1E:BA:F5:97:C4:CB:BA:84:E4:E6:0B:F6:16:9F:AB:75:64:21:E8
            X509v3 Authority Key Identifier: 
                keyid:FF:1D:63:03:A1:30:23:3B:D6:45:25:31:94:F9:19:66:75:57:1B:B1

    Signature Algorithm: sha256WithRSAEncryption
         67:61:95:b2:79:da:6b:be:00:dd:fd:41:e6:84:7f:99:58:e7:
         6e:24:bc:f4:8f:7e:5d:90:1e:3c:c8:13:89:53:93:5e:18:bc:
         df:50:a0:04:7e:2d:df:ef:50:ab:fd:48:00:24:ff:3a:61:0b:
         38:ef:34:34:fc:b9:9b:fe:15:4a:05:06:bb:08:f2:14:04:b4:
         d6:5d:43:82:61:4a:1d:8f:cb:bc:b1:5b:e6:21:ce:e6:bd:7f:
         ae:d2:b7:a3:00:01:5f:66:bc:56:16:3c:47:29:3c:01:a9:f0:
         7a:c6:ed:9b:8c:94:40:b8:21:82:13:2b:d1:98:b3:59:a7:22:
         d6:f8
-----BEGIN CERTIFICATE-----
MIIC2TCCAkKgAwIBAgIBATANBgkqhkiG9w0BAQsFADB7MTAwLgYDVQQDDCdtYXJp
ZXRqaWUtQU9SVVMtNy1TQS5PcGVuQWlyNUcuQWxsaWFuY2UxCzAJBgNVBAYTAkZS
MQ0wCwYDVQQIDARQQUNBMQwwCgYDVQQHDANBaXgxEDAOBgNVBAoMB0V1cmVjb20x
CzAJBgNVBAsMAkNNMB4XDTIwMDExNzA2NDEzMVoXDTIxMDExNjA2NDEzMVowbTEL
MAkGA1UEBhMCRlIxDTALBgNVBAgMBFBBQ0ExEDAOBgNVBAoMB0V1cmVjb20xCzAJ
BgNVBAsMAkNNMTAwLgYDVQQDDCdtYXJpZXRqaWUtQU9SVVMtNy1TQS5PcGVuQWly
NUcuQWxsaWFuY2UwgZ8wDQYJKoZIhvcNAQEBBQADgY0AMIGJAoGBAMPjAkHXSoog
PnNfKEuVMz2WHSatHTaZSNzBmcKU+7fpZWO0KMmWDmR7uqUNbq/y+Evx/6bY2h9d
/yxnVUE5b2tjuiMi9iK9cj9NflN2xRoRphvYH2+Wl4WKirLJbtIwH0qie0JUG7ln
z37zTKmHixUlj8DiPf4EcPh5QPgXLcN3AgMBAAGjezB5MAkGA1UdEwQCMAAwLAYJ
YIZIAYb4QgENBB8WHU9wZW5TU0wgR2VuZXJhdGVkIENlcnRpZmljYXRlMB0GA1Ud
DgQWBBTiHrr1l8TLuoTk5gv2Fp+rdWQh6DAfBgNVHSMEGDAWgBT/HWMDoTAjO9ZF
JTGU+RlmdVcbsTANBgkqhkiG9w0BAQsFAAOBgQBnYZWyedprvgDd/UHmhH+ZWOdu
JLz0j35dkB48yBOJU5NeGLzfUKAEfi3f71Cr/UgAJP86YQs47zQ0/Lmb/hVKBQa7
CPIUBLTWXUOCYUodj8u8sVvmIc7mvX+u0rejAAFfZrxWFjxHKTwBqfB6xu2bjJRA
uCGCEyvRmLNZpyLW+A==
-----END CERTIFICATE-----
